; Function Attrs: nounwind uwtable
define range(i32 0, 2) i32 @ossl_ed25519_pubkey_verify(ptr noundef readonly captures(none) %0, i64 noundef %1) local_unnamed_addr #0 {
  %3 = alloca %struct.ge_p3, align 4
  call void @llvm.lifetime.start.p0(i64 160, ptr nonnull %3) #9
  %.not = icmp eq i64 %1, 32
  br i1 %.not, label %4, label %8

4:                                                ; preds = %2
  %5 = call fastcc i32 @ge_frombytes_vartime(ptr noundef %3, ptr noundef %0)
  %6 = icmp eq i32 %5, 0
  %7 = zext i1 %6 to i32
  br label %8

8:                                                ; preds = %2, %4
  %.0 = phi i32 [ %7, %4 ], [ 0, %2 ]
  call void @llvm.lifetime.end.p0(i64 160, ptr nonnull %3) #9
  ret i32 %.0
}